target datalayout = "e-m:e-p270:32:32-p271:32:32-p272:64:64-i64:64-i128:128-f80:128-n8:16:32:64-S128"
target triple = "x86_64-pc-linux-gnu"

%struct.timeval = type { i64, i64 }

@.str = private unnamed_addr constant [6 x i8] c"uid.c\00", align 1
@__func__.slurm_getpwuid_r = private unnamed_addr constant [17 x i8] c"slurm_getpwuid_r\00", align 1
@.str.1 = private unnamed_addr constant [36 x i8] c"%s: getpwuid_r(%u): no record found\00", align 1
@.str.2 = private unnamed_addr constant [23 x i8] c"%s: getpwuid_r(%u): %s\00", align 1
@.str.3 = private unnamed_addr constant [11 x i8] c"getpwuid_r\00", align 1

; Function Attrs: nounwind uwtable
define dso_local void @slurm_getpwuid_r(i32 noundef %0, ptr noundef %1, ptr noundef %2, ptr noundef %3, ptr noundef %4, ptr noundef %5) #0 {
  %7 = alloca i32, align 4
  %8 = alloca ptr, align 8
  %9 = alloca ptr, align 8
  %10 = alloca ptr, align 8
  %11 = alloca ptr, align 8
  %12 = alloca ptr, align 8
  %13 = alloca %struct.timeval, align 8
  %14 = alloca %struct.timeval, align 8
  %15 = alloca [20 x i8], align 16
  %16 = alloca i64, align 8
  %17 = alloca i32, align 4
  %18 = alloca i32, align 4
  store i32 %0, ptr %7, align 4
  store ptr %1, ptr %8, align 8
  store ptr %2, ptr %9, align 8
  store ptr %3, ptr %10, align 8
  store ptr %4, ptr %11, align 8
  store ptr %5, ptr %12, align 8
  call void @llvm.lifetime.start.p0(i64 16, ptr %13) #9
  call void @llvm.lifetime.start.p0(i64 16, ptr %14) #9
  call void @llvm.lifetime.start.p0(i64 20, ptr %15) #9
  call void @llvm.memset.p0.i64(ptr align 16 %15, i8 0, i64 20, i1 false)
  call void @llvm.lifetime.start.p0(i64 8, ptr %16) #9
  %19 = call i32 @gettimeofday(ptr noundef %13, ptr noundef null) #9
  br label %20

20:                                               ; preds = %89, %6
  br label %21

21:                                               ; preds = %20
  call void @llvm.lifetime.start.p0(i64 4, ptr %17) #9
  %22 = load i32, ptr %7, align 4
  %23 = load ptr, ptr %8, align 8
  %24 = load ptr, ptr %9, align 8
  %25 = load ptr, ptr %24, align 8
  %26 = load ptr, ptr %11, align 8
  %27 = load i64, ptr %26, align 8
  %28 = load ptr, ptr %12, align 8
  %29 = call i32 @getpwuid_r(i32 noundef %22, ptr noundef %23, ptr noundef %25, i64 noundef %27, ptr noundef %28)
  store i32 %29, ptr %17, align 4
  %30 = load i32, ptr %17, align 4
  %31 = icmp ne i32 %30, 0
  br i1 %31, label %37, label %32

32:                                               ; preds = %21
  %33 = load ptr, ptr %12, align 8
  %34 = load ptr, ptr %33, align 8
  %35 = icmp ne ptr %34, null
  br i1 %35, label %36, label %37

36:                                               ; preds = %32
  store i32 3, ptr %18, align 4
  br label %89

37:                                               ; preds = %32, %21
  %38 = load i32, ptr %17, align 4
  %39 = icmp eq i32 %38, 4
  br i1 %39, label %40, label %41

40:                                               ; preds = %37
  store i32 2, ptr %18, align 4
  br label %89, !llvm.loop !8

41:                                               ; preds = %37
  %42 = load i32, ptr %17, align 4
  %43 = icmp eq i32 %42, 34
  br i1 %43, label %44, label %53

44:                                               ; preds = %41
  %45 = load ptr, ptr %11, align 8
  %46 = load i64, ptr %45, align 8
  %47 = mul i64 %46, 2
  store i64 %47, ptr %45, align 8
  %48 = load ptr, ptr %10, align 8
  %49 = load ptr, ptr %11, align 8
  %50 = load i64, ptr %49, align 8
  %51 = call ptr @slurm_xrecalloc(ptr noundef %48, i64 noundef 1, i64 noundef %50, i1 noundef zeroext true, i1 noundef zeroext false, ptr noundef @.str, i32 noundef 83, ptr noundef @__func__.slurm_getpwuid_r)
  %52 = load ptr, ptr %9, align 8
  store ptr %51, ptr %52, align 8
  store i32 2, ptr %18, align 4
  br label %89, !llvm.loop !8

53:                                               ; preds = %41
  %54 = load i32, ptr %17, align 4
  %55 = icmp eq i32 %54, 0
  br i1 %55, label %68, label %56

56:                                               ; preds = %53
  %57 = load i32, ptr %17, align 4
  %58 = icmp eq i32 %57, 2
  br i1 %58, label %68, label %59

59:                                               ; preds = %56
  %60 = load i32, ptr %17, align 4
  %61 = icmp eq i32 %60, 3
  br i1 %61, label %68, label %62

62:                                               ; preds = %59
  %63 = load i32, ptr %17, align 4
  %64 = icmp eq i32 %63, 9
  br i1 %64, label %68, label %65

65:                                               ; preds = %62
  %66 = load i32, ptr %17, align 4
  %67 = icmp eq i32 %66, 1
  br i1 %67, label %68, label %80

68:                                               ; preds = %65, %62, %59, %56, %53
  br label %69

69:                                               ; preds = %68
  br label %70

70:                                               ; preds = %69
  %71 = call i32 @get_log_level()
  %72 = icmp sge i32 %71, 6
  br i1 %72, label %73, label %75

73:                                               ; preds = %70
  %74 = load i32, ptr %7, align 4
  call void (i32, ptr, ...) @log_var(i32 noundef 6, ptr noundef @.str.1, ptr noundef @__func__.slurm_getpwuid_r, i32 noundef %74)
  br label %75

75:                                               ; preds = %73, %70
  br label %76

76:                                               ; preds = %75
  br label %77

77:                                               ; preds = %76
  br label %78

78:                                               ; preds = %77
  br label %79

79:                                               ; preds = %78
  br label %85

80:                                               ; preds = %65
  %81 = load i32, ptr %7, align 4
  %82 = load i32, ptr %17, align 4
  %83 = call ptr @slurm_strerror(i32 noundef %82)
  %84 = call i32 (ptr, ...) @error(ptr noundef @.str.2, ptr noundef @__func__.slurm_getpwuid_r, i32 noundef %81, ptr noundef %83)
  br label %85

85:                                               ; preds = %80, %79
  br label %86

86:                                               ; preds = %85
  br label %87

87:                                               ; preds = %86
  %88 = load ptr, ptr %12, align 8
  store ptr null, ptr %88, align 8
  store i32 3, ptr %18, align 4
  br label %89

89:                                               ; preds = %87, %44, %40, %36
  call void @llvm.lifetime.end.p0(i64 4, ptr %17) #9
  %90 = load i32, ptr %18, align 4
  switch i32 %90, label %97 [
    i32 3, label %91
    i32 2, label %20
  ]

91:                                               ; preds = %89
  br label %92

92:                                               ; preds = %91
  %93 = call i32 @gettimeofday(ptr noundef %14, ptr noundef null) #9
  %94 = getelementptr inbounds [20 x i8], ptr %15, i64 0, i64 0
  call void @slurm_diff_tv_str(ptr noundef %13, ptr noundef %14, ptr noundef %94, i32 noundef 20, ptr noundef @.str.3, i64 noundef 0, ptr noundef %16)
  br label %95

95:                                               ; preds = %92
  br label %96

96:                                               ; preds = %95
  call void @llvm.lifetime.end.p0(i64 8, ptr %16) #9
  call void @llvm.lifetime.end.p0(i64 20, ptr %15) #9
  call void @llvm.lifetime.end.p0(i64 16, ptr %14) #9
  call void @llvm.lifetime.end.p0(i64 16, ptr %13) #9
  ret void

97:                                               ; preds = %89
  unreachable
}