; Function Attrs: nounwind uwtable
define dso_local void @slurm_getpwuid_r(i32 noundef %0, ptr noundef %1, ptr noundef captures(none) %2, ptr noundef %3, ptr noundef captures(none) %4, ptr noundef %5) local_unnamed_addr #0 {
  %7 = alloca %struct.timeval, align 8
  %8 = alloca %struct.timeval, align 8
  %9 = alloca [20 x i8], align 16
  %10 = alloca i64, align 8
  call void @llvm.lifetime.start.p0(i64 16, ptr nonnull %7) #10
  call void @llvm.lifetime.start.p0(i64 16, ptr nonnull %8) #10
  call void @llvm.lifetime.start.p0(i64 20, ptr nonnull %9) #10
  call void @llvm.memset.p0.i64(ptr noundef nonnull align 16 dereferenceable(20) %9, i8 0, i64 20, i1 false)
  call void @llvm.lifetime.start.p0(i64 8, ptr nonnull %10) #10
  %11 = call i32 @gettimeofday(ptr noundef nonnull %7, ptr noundef null) #10
  br label %12

12:                                               ; preds = %.backedge, %6
  %13 = load ptr, ptr %2, align 8
  %14 = load i64, ptr %4, align 8
  %15 = tail call i32 @getpwuid_r(i32 noundef %0, ptr noundef %1, ptr noundef %13, i64 noundef %14, ptr noundef %5) #10
  switch i32 %15, label %25 [
    i32 0, label %16
    i32 4, label %.backedge
    i32 34, label %18
    i32 9, label %.loopexit
    i32 3, label %.loopexit
    i32 2, label %.loopexit
    i32 1, label %.loopexit
  ]

.backedge:                                        ; preds = %12, %18
  br label %12, !llvm.loop !8

16:                                               ; preds = %12
  %17 = load ptr, ptr %5, align 8
  %.not30 = icmp eq ptr %17, null
  br i1 %.not30, label %.loopexit, label %29

18:                                               ; preds = %12
  %19 = load i64, ptr %4, align 8
  %20 = shl i64 %19, 1
  store i64 %20, ptr %4, align 8
  %21 = tail call ptr @slurm_xrecalloc(ptr noundef %3, i64 noundef 1, i64 noundef %20, i1 noundef zeroext true, i1 noundef zeroext false, ptr noundef nonnull @.str, i32 noundef 83, ptr noundef nonnull @__func__.slurm_getpwuid_r) #10
  store ptr %21, ptr %2, align 8
  br label %.backedge

.loopexit:                                        ; preds = %12, %12, %12, %12, %16
  %22 = tail call i32 @get_log_level() #10
  %23 = icmp sgt i32 %22, 5
  br i1 %23, label %24, label %28

24:                                               ; preds = %.loopexit
  tail call void (i32, ptr, ...) @log_var(i32 noundef 6, ptr noundef nonnull @.str.1, ptr noundef nonnull @__func__.slurm_getpwuid_r, i32 noundef %0) #10
  br label %28

25:                                               ; preds = %12
  %26 = tail call ptr @slurm_strerror(i32 noundef %15) #10
  %27 = tail call i32 (ptr, ...) @error(ptr noundef nonnull @.str.2, ptr noundef nonnull @__func__.slurm_getpwuid_r, i32 noundef %0, ptr noundef %26) #10
  br label %28

28:                                               ; preds = %.loopexit, %24, %25
  store ptr null, ptr %5, align 8
  br label %29

29:                                               ; preds = %28, %16
  %30 = call i32 @gettimeofday(ptr noundef nonnull %8, ptr noundef null) #10
  call void @slurm_diff_tv_str(ptr noundef nonnull %7, ptr noundef nonnull %8, ptr noundef nonnull %9, i32 noundef 20, ptr noundef nonnull @.str.3, i64 noundef 0, ptr noundef nonnull %10) #10
  call void @llvm.lifetime.end.p0(i64 8, ptr nonnull %10) #10
  call void @llvm.lifetime.end.p0(i64 20, ptr nonnull %9) #10
  call void @llvm.lifetime.end.p0(i64 16, ptr nonnull %8) #10
  call void @llvm.lifetime.end.p0(i64 16, ptr nonnull %7) #10
  ret void
}